target datalayout = "e-m:e-p270:32:32-p271:32:32-p272:64:64-i64:64-i128:128-f80:128-n8:16:32:64-S128"
target triple = "x86_64-pc-linux-gnu"

%"class.llvm::Error" = type { ptr }
%"class.llvm::ErrorSuccess" = type { %"class.llvm::Error" }
%"class.llvm::codeview::CVRecord" = type { %"class.llvm::ArrayRef" }
%"class.llvm::ArrayRef" = type { ptr, i64 }
%"struct.llvm::codeview::RecordPrefix" = type { %"struct.llvm::support::detail::packed_endian_specific_integral.28", %"struct.llvm::support::detail::packed_endian_specific_integral.28" }
%"struct.llvm::support::detail::packed_endian_specific_integral.28" = type { %struct.anon.29 }
%struct.anon.29 = type { [2 x i8] }
%"class.llvm::codeview::SymbolRecord" = type { i16 }
%"class.llvm::StringRef" = type { ptr, i64 }
%"class.llvm::codeview::SectionSym" = type <{ %"class.llvm::codeview::SymbolRecord", i16, i8, [3 x i8], i32, i32, i32, [4 x i8], %"class.llvm::StringRef", i32, [4 x i8] }>

; Function Attrs: mustprogress nounwind uwtable
define linkonce_odr hidden noundef zeroext i16 @_ZN4llvm8byteswapItvEET_S1_(i16 noundef zeroext %0) #0 comdat {
  %2 = alloca i16, align 2
  %3 = alloca i16, align 2
  %4 = alloca i16, align 2
  %5 = alloca i16, align 2
  store i16 %0, ptr %2, align 2
  %6 = load i16, ptr %2, align 2
  store i16 %6, ptr %3, align 2
  %7 = load i16, ptr %3, align 2
  %8 = zext i16 %7 to i32
  %9 = shl i32 %8, 8
  %10 = trunc i32 %9 to i16
  store i16 %10, ptr %4, align 2
  %11 = load i16, ptr %3, align 2
  %12 = zext i16 %11 to i32
  %13 = ashr i32 %12, 8
  %14 = trunc i32 %13 to i16
  store i16 %14, ptr %5, align 2
  %15 = load i16, ptr %4, align 2
  %16 = zext i16 %15 to i32
  %17 = load i16, ptr %5, align 2
  %18 = zext i16 %17 to i32
  %19 = or i32 %16, %18
  %20 = trunc i32 %19 to i16
  ret i16 %20
}

; Function Attrs: mustprogress nounwind uwtable
define linkonce_odr hidden noundef zeroext i16 @_ZN4llvm3sys15getSwappedBytesEt(i16 noundef zeroext %0) #0 comdat {
  %2 = alloca i16, align 2
  store i16 %0, ptr %2, align 2
  %3 = load i16, ptr %2, align 2
  %4 = call noundef zeroext i16 @_ZN4llvm8byteswapItvEET_S1_(i16 noundef zeroext %3) #11
  ret i16 %4
}

; Function Attrs: mustprogress nounwind uwtable
define linkonce_odr hidden void @_ZN4llvm3sys13swapByteOrderItEEvRT_(ptr noundef nonnull align 2 dereferenceable(2) %0) #0 comdat {
  %2 = alloca ptr, align 8
  store ptr %0, ptr %2, align 8
  %3 = load ptr, ptr %2, align 8
  %4 = load i16, ptr %3, align 2
  %5 = call noundef zeroext i16 @_ZN4llvm3sys15getSwappedBytesEt(i16 noundef zeroext %4)
  %6 = load ptr, ptr %2, align 8
  store i16 %5, ptr %6, align 2
  ret void
}

; Function Attrs: mustprogress nounwind uwtable
define linkonce_odr hidden noundef zeroext i16 @_ZN4llvm7support6endian9byte_swapItEET_S3_NS_10endiannessE(i16 noundef zeroext %0, i32 noundef %1) #0 comdat {
  %3 = alloca i16, align 2
  %4 = alloca i32, align 4
  store i16 %0, ptr %3, align 2
  store i32 %1, ptr %4, align 4
  %5 = load i32, ptr %4, align 4
  %6 = icmp ne i32 %5, 1
  br i1 %6, label %7, label %8

7:                                                ; preds = %2
  call void @_ZN4llvm3sys13swapByteOrderItEEvRT_(ptr noundef nonnull align 2 dereferenceable(2) %3)
  br label %8

8:                                                ; preds = %7, %2
  %9 = load i16, ptr %3, align 2
  ret i16 %9
}

; Function Attrs: mustprogress nounwind uwtable
define linkonce_odr hidden noundef zeroext i16 @_ZN4llvm7support6endian4readItLm1EEET_PKvNS_10endiannessE(ptr noundef %0, i32 noundef %1) #0 comdat {
  %3 = alloca ptr, align 8
  %4 = alloca i32, align 4
  %5 = alloca i16, align 2
  store ptr %0, ptr %3, align 8
  store i32 %1, ptr %4, align 4
  %6 = load ptr, ptr %3, align 8
  call void @llvm.assume(i1 true) [ "align"(ptr %6, i64 1) ]
  call void @llvm.memcpy.p0.p0.i64(ptr align 2 %5, ptr align 1 %6, i64 2, i1 false)
  %7 = load i16, ptr %5, align 2
  %8 = load i32, ptr %4, align 4
  %9 = call noundef zeroext i16 @_ZN4llvm7support6endian9byte_swapItEET_S3_NS_10endiannessE(i16 noundef zeroext %7, i32 noundef %8)
  ret i16 %9
}

; Function Attrs: mustprogress nounwind uwtable
define linkonce_odr hidden void @_ZN4llvm5Error6setPtrEPNS_13ErrorInfoBaseE(ptr noundef nonnull align 8 dereferenceable(8) %0, ptr noundef %1) #0 comdat align 2 {
  %3 = alloca ptr, align 8
  %4 = alloca ptr, align 8
  store ptr %0, ptr %3, align 8
  store ptr %1, ptr %4, align 8
  %5 = load ptr, ptr %3, align 8
  %6 = load ptr, ptr %4, align 8
  %7 = getelementptr inbounds nuw %"class.llvm::Error", ptr %5, i32 0, i32 0
  store ptr %6, ptr %7, align 8
  ret void
}

; Function Attrs: mustprogress nounwind uwtable
define linkonce_odr hidden void @_ZN4llvm5ErrorC2Ev(ptr noundef nonnull align 8 dereferenceable(8) %0) unnamed_addr #0 comdat align 2 {
  %2 = alloca ptr, align 8
  store ptr %0, ptr %2, align 8
  %3 = load ptr, ptr %2, align 8
  %4 = getelementptr inbounds nuw %"class.llvm::Error", ptr %3, i32 0, i32 0
  store ptr null, ptr %4, align 8
  call void @_ZN4llvm5Error6setPtrEPNS_13ErrorInfoBaseE(ptr noundef nonnull align 8 dereferenceable(8) %3, ptr noundef null)
  call void @_ZN4llvm5Error10setCheckedEb(ptr noundef nonnull align 8 dereferenceable(8) %3, i1 noundef zeroext false)
  ret void
}

; Function Attrs: mustprogress nounwind uwtable
define linkonce_odr hidden noundef zeroext i16 @_ZN4llvm7support6endian4readItLNS_10endiannessE1ELm1EEET_PKv(ptr noundef %0) #0 comdat {
  %2 = alloca ptr, align 8
  store ptr %0, ptr %2, align 8
  %3 = load ptr, ptr %2, align 8
  %4 = call noundef zeroext i16 @_ZN4llvm7support6endian4readItLm1EEET_PKvNS_10endiannessE(ptr noundef %3, i32 noundef 1)
  ret i16 %4
}

; Function Attrs: mustprogress nounwind uwtable
define linkonce_odr hidden noundef nonnull align 8 dereferenceable(8) ptr @_ZN4llvm5ErroraSEOS0_(ptr noundef nonnull align 8 dereferenceable(8) %0, ptr noundef nonnull align 8 dereferenceable(8) %1) #0 comdat align 2 {
  %3 = alloca ptr, align 8
  %4 = alloca ptr, align 8
  store ptr %0, ptr %3, align 8
  store ptr %1, ptr %4, align 8
  %5 = load ptr, ptr %3, align 8
  call void @_ZN4llvm5Error15assertIsCheckedEv(ptr noundef nonnull align 8 dereferenceable(8) %5)
  %6 = load ptr, ptr %4, align 8
  %7 = call noundef ptr @_ZNK4llvm5Error6getPtrEv(ptr noundef nonnull align 8 dereferenceable(8) %6)
  call void @_ZN4llvm5Error6setPtrEPNS_13ErrorInfoBaseE(ptr noundef nonnull align 8 dereferenceable(8) %5, ptr noundef %7)
  call void @_ZN4llvm5Error10setCheckedEb(ptr noundef nonnull align 8 dereferenceable(8) %5, i1 noundef zeroext false)
  %8 = load ptr, ptr %4, align 8
  call void @_ZN4llvm5Error6setPtrEPNS_13ErrorInfoBaseE(ptr noundef nonnull align 8 dereferenceable(8) %8, ptr noundef null)
  %9 = load ptr, ptr %4, align 8
  call void @_ZN4llvm5Error10setCheckedEb(ptr noundef nonnull align 8 dereferenceable(8) %9, i1 noundef zeroext true)
  ret ptr %5
}

; Function Attrs: mustprogress nounwind uwtable
define linkonce_odr hidden void @_ZN4llvm12ErrorSuccessC2Ev(ptr noundef nonnull align 8 dereferenceable(8) %0) unnamed_addr #0 comdat align 2 {
  %2 = alloca ptr, align 8
  store ptr %0, ptr %2, align 8
  %3 = load ptr, ptr %2, align 8
  call void @_ZN4llvm5ErrorC2Ev(ptr noundef nonnull align 8 dereferenceable(8) %3)
  ret void
}

; Function Attrs: mustprogress nounwind uwtable
define linkonce_odr hidden void @_ZN4llvm5Error15assertIsCheckedEv(ptr noundef nonnull align 8 dereferenceable(8) %0) #0 comdat align 2 {
  %2 = alloca ptr, align 8
  store ptr %0, ptr %2, align 8
  ret void
}

; Function Attrs: mustprogress nounwind uwtable
define linkonce_odr hidden void @_ZN4llvm5Error10setCheckedEb(ptr noundef nonnull align 8 dereferenceable(8) %0, i1 noundef zeroext %1) #0 comdat align 2 {
  %3 = alloca ptr, align 8
  %4 = alloca i8, align 1
  store ptr %0, ptr %3, align 8
  %5 = zext i1 %1 to i8
  store i8 %5, ptr %4, align 1
  ret void
}

; Function Attrs: mustprogress nounwind uwtable
define linkonce_odr hidden noundef ptr @_ZNK4llvm5Error6getPtrEv(ptr noundef nonnull align 8 dereferenceable(8) %0) #0 comdat align 2 {
  %2 = alloca ptr, align 8
  store ptr %0, ptr %2, align 8
  %3 = load ptr, ptr %2, align 8
  %4 = getelementptr inbounds nuw %"class.llvm::Error", ptr %3, i32 0, i32 0
  %5 = load ptr, ptr %4, align 8
  ret ptr %5
}

; Function Attrs: mustprogress nounwind uwtable
define linkonce_odr hidden void @_ZN4llvm9StringRefC2Ev(ptr noundef nonnull align 8 dereferenceable(16) %0) unnamed_addr #0 comdat align 2 {
  %2 = alloca ptr, align 8
  store ptr %0, ptr %2, align 8
  %3 = load ptr, ptr %2, align 8
  %4 = getelementptr inbounds nuw %"class.llvm::StringRef", ptr %3, i32 0, i32 0
  store ptr null, ptr %4, align 8
  %5 = getelementptr inbounds nuw %"class.llvm::StringRef", ptr %3, i32 0, i32 1
  store i64 0, ptr %5, align 8
  ret void
}

; Function Attrs: mustprogress nounwind uwtable
define linkonce_odr hidden void @_ZN4llvm8codeview12SymbolRecordC2ENS0_16SymbolRecordKindE(ptr noundef nonnull align 2 dereferenceable(2) %0, i16 noundef zeroext %1) unnamed_addr #0 comdat align 2 {
  %3 = alloca ptr, align 8
  %4 = alloca i16, align 2
  store ptr %0, ptr %3, align 8
  store i16 %1, ptr %4, align 2
  %5 = load ptr, ptr %3, align 8
  %6 = getelementptr inbounds nuw %"class.llvm::codeview::SymbolRecord", ptr %5, i32 0, i32 0
  %7 = load i16, ptr %4, align 2
  store i16 %7, ptr %6, align 2
  ret void
}

; Function Attrs: mustprogress nounwind uwtable
define linkonce_odr hidden noundef zeroext i16 @_ZNK4llvm7support6detail31packed_endian_specific_integralItLNS_10endiannessE1ELm1ELm1EEcvtEv(ptr noundef nonnull align 1 dereferenceable(2) %0) #0 comdat align 2 {
  %2 = alloca ptr, align 8
  store ptr %0, ptr %2, align 8
  %3 = load ptr, ptr %2, align 8
  %4 = getelementptr inbounds nuw %"struct.llvm::support::detail::packed_endian_specific_integral.28", ptr %3, i32 0, i32 0
  %5 = getelementptr inbounds nuw %struct.anon.29, ptr %4, i32 0, i32 0
  %6 = getelementptr inbounds [2 x i8], ptr %5, i64 0, i64 0
  %7 = call noundef zeroext i16 @_ZN4llvm7support6endian4readItLNS_10endiannessE1ELm1EEET_PKv(ptr noundef %6)
  ret i16 %7
}

; Function Attrs: mustprogress nounwind uwtable
define linkonce_odr hidden noundef ptr @_ZNK4llvm8ArrayRefIhE4dataEv(ptr noundef nonnull align 8 dereferenceable(16) %0) #0 comdat align 2 {
  %2 = alloca ptr, align 8
  store ptr %0, ptr %2, align 8
  %3 = load ptr, ptr %2, align 8
  %4 = getelementptr inbounds nuw %"class.llvm::ArrayRef", ptr %3, i32 0, i32 0
  %5 = load ptr, ptr %4, align 8
  ret ptr %5
}

; Function Attrs: mustprogress nounwind uwtable
define linkonce_odr hidden noundef i64 @_ZNK4llvm8ArrayRefIhE4sizeEv(ptr noundef nonnull align 8 dereferenceable(16) %0) #0 comdat align 2 {
  %2 = alloca ptr, align 8
  store ptr %0, ptr %2, align 8
  %3 = load ptr, ptr %2, align 8
  %4 = getelementptr inbounds nuw %"class.llvm::ArrayRef", ptr %3, i32 0, i32 1
  %5 = load i64, ptr %4, align 8
  ret i64 %5
}

; Function Attrs: mustprogress nounwind uwtable
define linkonce_odr hidden void @_ZN4llvm12ErrorSuccessD2Ev(ptr noundef nonnull align 8 dereferenceable(8) %0) unnamed_addr #0 comdat align 2 {
  %2 = alloca ptr, align 8
  store ptr %0, ptr %2, align 8
  %3 = load ptr, ptr %2, align 8
  call void @_ZN4llvm5ErrorD2Ev(ptr noundef nonnull align 8 dereferenceable(8) %3) #11
  ret void
}

; Function Attrs: mustprogress nounwind uwtable
define linkonce_odr hidden void @_ZN4llvm5ErrorC2EOS0_(ptr noundef nonnull align 8 dereferenceable(8) %0, ptr noundef nonnull align 8 dereferenceable(8) %1) unnamed_addr #0 comdat align 2 {
  %3 = alloca ptr, align 8
  %4 = alloca ptr, align 8
  store ptr %0, ptr %3, align 8
  store ptr %1, ptr %4, align 8
  %5 = load ptr, ptr %3, align 8
  %6 = getelementptr inbounds nuw %"class.llvm::Error", ptr %5, i32 0, i32 0
  store ptr null, ptr %6, align 8
  call void @_ZN4llvm5Error10setCheckedEb(ptr noundef nonnull align 8 dereferenceable(8) %5, i1 noundef zeroext true)
  %7 = load ptr, ptr %4, align 8
  %8 = call noundef nonnull align 8 dereferenceable(8) ptr @_ZN4llvm5ErroraSEOS0_(ptr noundef nonnull align 8 dereferenceable(8) %5, ptr noundef nonnull align 8 dereferenceable(8) %7)
  ret void
}

; Function Attrs: mustprogress nounwind uwtable
define linkonce_odr hidden void @_ZN4llvm5Error7successEv(ptr dead_on_unwind noalias writable sret(%"class.llvm::ErrorSuccess") align 8 %0) #0 comdat align 2 {
  %2 = alloca ptr, align 8
  store ptr %0, ptr %2, align 8
  call void @llvm.memset.p0.i64(ptr align 8 %0, i8 0, i64 8, i1 false)
  call void @_ZN4llvm12ErrorSuccessC2Ev(ptr noundef nonnull align 8 dereferenceable(8) %0)
  ret void
}

; Function Attrs: mustprogress nounwind uwtable
define linkonce_odr hidden void @_ZN4llvm5ErrorD2Ev(ptr noundef nonnull align 8 dereferenceable(8) %0) unnamed_addr #0 comdat align 2 {
  %2 = alloca ptr, align 8
  store ptr %0, ptr %2, align 8
  %3 = load ptr, ptr %2, align 8
  call void @_ZN4llvm5Error15assertIsCheckedEv(ptr noundef nonnull align 8 dereferenceable(8) %3)
  %4 = call noundef ptr @_ZNK4llvm5Error6getPtrEv(ptr noundef nonnull align 8 dereferenceable(8) %3)
  %5 = icmp eq ptr %4, null
  br i1 %5, label %10, label %6

6:                                                ; preds = %1
  %7 = load ptr, ptr %4, align 8
  %8 = getelementptr inbounds ptr, ptr %7, i64 1
  %9 = load ptr, ptr %8, align 8
  call void %9(ptr noundef nonnull align 8 dereferenceable(8) %4) #11
  br label %10

10:                                               ; preds = %6, %1
  ret void
}

; Function Attrs: mustprogress nounwind uwtable
define linkonce_odr hidden noundef zeroext i1 @_ZN4llvm5ErrorcvbEv(ptr noundef nonnull align 8 dereferenceable(8) %0) #0 comdat align 2 {
  %2 = alloca ptr, align 8
  store ptr %0, ptr %2, align 8
  %3 = load ptr, ptr %2, align 8
  %4 = call noundef ptr @_ZNK4llvm5Error6getPtrEv(ptr noundef nonnull align 8 dereferenceable(8) %3)
  %5 = icmp eq ptr %4, null
  call void @_ZN4llvm5Error10setCheckedEb(ptr noundef nonnull align 8 dereferenceable(8) %3, i1 noundef zeroext %5)
  %6 = call noundef ptr @_ZNK4llvm5Error6getPtrEv(ptr noundef nonnull align 8 dereferenceable(8) %3)
  %7 = icmp ne ptr %6, null
  ret i1 %7
}

; Function Attrs: mustprogress nounwind uwtable
define linkonce_odr hidden void @_ZN4llvm8codeview10SectionSymC2ENS0_16SymbolRecordKindE(ptr noundef nonnull align 8 dereferenceable(44) %0, i16 noundef zeroext %1) unnamed_addr #0 comdat align 2 {
  %3 = alloca ptr, align 8
  %4 = alloca i16, align 2
  store ptr %0, ptr %3, align 8
  store i16 %1, ptr %4, align 2
  %5 = load ptr, ptr %3, align 8
  %6 = load i16, ptr %4, align 2
  call void @_ZN4llvm8codeview12SymbolRecordC2ENS0_16SymbolRecordKindE(ptr noundef nonnull align 2 dereferenceable(2) %5, i16 noundef zeroext %6)
  %7 = getelementptr inbounds nuw %"class.llvm::codeview::SectionSym", ptr %5, i32 0, i32 1
  store i16 0, ptr %7, align 2
  %8 = getelementptr inbounds nuw %"class.llvm::codeview::SectionSym", ptr %5, i32 0, i32 2
  store i8 0, ptr %8, align 4
  %9 = getelementptr inbounds nuw %"class.llvm::codeview::SectionSym", ptr %5, i32 0, i32 4
  store i32 0, ptr %9, align 8
  %10 = getelementptr inbounds nuw %"class.llvm::codeview::SectionSym", ptr %5, i32 0, i32 5
  store i32 0, ptr %10, align 4
  %11 = getelementptr inbounds nuw %"class.llvm::codeview::SectionSym", ptr %5, i32 0, i32 6
  store i32 0, ptr %11, align 8
  %12 = getelementptr inbounds nuw %"class.llvm::codeview::SectionSym", ptr %5, i32 0, i32 8
  call void @_ZN4llvm9StringRefC2Ev(ptr noundef nonnull align 8 dereferenceable(16) %12) #11
  %13 = getelementptr inbounds nuw %"class.llvm::codeview::SectionSym", ptr %5, i32 0, i32 9
  store i32 0, ptr %13, align 8
  ret void
}

; Function Attrs: mustprogress nounwind uwtable
define linkonce_odr hidden noundef zeroext i16 @_ZNK4llvm8codeview8CVRecordINS0_10SymbolKindEE4kindEv(ptr noundef nonnull align 8 dereferenceable(16) %0) #0 comdat align 2 {
  %2 = alloca i16, align 2
  %3 = alloca ptr, align 8
  store ptr %0, ptr %3, align 8
  %4 = load ptr, ptr %3, align 8
  %5 = getelementptr inbounds nuw %"class.llvm::codeview::CVRecord", ptr %4, i32 0, i32 0
  %6 = call noundef i64 @_ZNK4llvm8ArrayRefIhE4sizeEv(ptr noundef nonnull align 8 dereferenceable(16) %5)
  %7 = icmp ult i64 %6, 4
  br i1 %7, label %8, label %9

8:                                                ; preds = %1
  store i16 0, ptr %2, align 2
  br label %14

9:                                                ; preds = %1
  %10 = getelementptr inbounds nuw %"class.llvm::codeview::CVRecord", ptr %4, i32 0, i32 0
  %11 = call noundef ptr @_ZNK4llvm8ArrayRefIhE4dataEv(ptr noundef nonnull align 8 dereferenceable(16) %10)
  %12 = getelementptr inbounds nuw %"struct.llvm::codeview::RecordPrefix", ptr %11, i32 0, i32 1
  %13 = call noundef zeroext i16 @_ZNK4llvm7support6detail31packed_endian_specific_integralItLNS_10endiannessE1ELm1ELm1EEcvtEv(ptr noundef nonnull align 1 dereferenceable(2) %12)
  store i16 %13, ptr %2, align 2
  br label %14

14:                                               ; preds = %9, %8
  %15 = load i16, ptr %2, align 2
  ret i16 %15
}

; Function Attrs: mustprogress nounwind uwtable
define internal void @_ZL16visitKnownRecordIN4llvm8codeview10SectionSymEENS0_5ErrorERNS1_8CVRecordINS1_10SymbolKindEEERNS1_22SymbolVisitorCallbacksE(ptr dead_on_unwind noalias writable sret(%"class.llvm::Error") align 8 %0, ptr noundef nonnull align 8 dereferenceable(16) %1, ptr noundef nonnull align 8 dereferenceable(8) %2) #0 {
  %4 = alloca ptr, align 8
  %5 = alloca ptr, align 8
  %6 = alloca ptr, align 8
  %7 = alloca i16, align 2
  %8 = alloca %"class.llvm::codeview::SectionSym", align 8
  %9 = alloca i1, align 1
  %10 = alloca i32, align 4
  %11 = alloca %"class.llvm::ErrorSuccess", align 8
  store ptr %0, ptr %4, align 8
  store ptr %1, ptr %5, align 8
  store ptr %2, ptr %6, align 8
  %12 = load ptr, ptr %5, align 8
  %13 = call noundef zeroext i16 @_ZNK4llvm8codeview8CVRecordINS0_10SymbolKindEE4kindEv(ptr noundef nonnull align 8 dereferenceable(16) %12)
  store i16 %13, ptr %7, align 2
  %14 = load i16, ptr %7, align 2
  call void @_ZN4llvm8codeview10SectionSymC2ENS0_16SymbolRecordKindE(ptr noundef nonnull align 8 dereferenceable(44) %8, i16 noundef zeroext %14)
  store i1 false, ptr %9, align 1
  %15 = load ptr, ptr %6, align 8
  %16 = load ptr, ptr %5, align 8
  %17 = load ptr, ptr %15, align 8
  %18 = getelementptr inbounds ptr, ptr %17, i64 9
  %19 = load ptr, ptr %18, align 8
  call void %19(ptr dead_on_unwind writable sret(%"class.llvm::Error") align 8 %0, ptr noundef nonnull align 8 dereferenceable(8) %15, ptr noundef nonnull align 8 dereferenceable(16) %16, ptr noundef nonnull align 8 dereferenceable(44) %8)
  %20 = call noundef zeroext i1 @_ZN4llvm5ErrorcvbEv(ptr noundef nonnull align 8 dereferenceable(8) %0)
  br i1 %20, label %21, label %22

21:                                               ; preds = %3
  store i1 true, ptr %9, align 1
  store i32 1, ptr %10, align 4
  br label %23

22:                                               ; preds = %3
  store i32 0, ptr %10, align 4
  br label %23

23:                                               ; preds = %22, %21
  %24 = load i1, ptr %9, align 1
  br i1 %24, label %26, label %25

25:                                               ; preds = %23
  call void @_ZN4llvm5ErrorD2Ev(ptr noundef nonnull align 8 dereferenceable(8) %0) #11
  br label %26

26:                                               ; preds = %25, %23
  %27 = load i32, ptr %10, align 4
  switch i32 %27, label %30 [
    i32 0, label %28
    i32 1, label %29
  ]

28:                                               ; preds = %26
  call void @_ZN4llvm5Error7successEv(ptr dead_on_unwind writable sret(%"class.llvm::ErrorSuccess") align 8 %11)
  call void @_ZN4llvm5ErrorC2EOS0_(ptr noundef nonnull align 8 dereferenceable(8) %0, ptr noundef nonnull align 8 dereferenceable(8) %11)
  call void @_ZN4llvm12ErrorSuccessD2Ev(ptr noundef nonnull align 8 dereferenceable(8) %11) #11
  br label %29

29:                                               ; preds = %28, %26
  ret void

30:                                               ; preds = %26
  unreachable
}